; Function Attrs: nounwind uwtable
define ptr @l_Lean_Meta_Grind_Arith_Cutsat_foreignTermOrLit_x3f(ptr noundef %0, ptr noundef %1, ptr noundef %2, ptr noundef %3, ptr noundef %4, ptr noundef %5, ptr noundef %6, ptr noundef %7, ptr noundef %8, ptr noundef %9) local_unnamed_addr #1 {
  %11 = ptrtoint ptr %0 to i64
  %12 = and i64 %11, 1
  %.not = icmp eq i64 %12, 0
  br i1 %.not, label %13, label %lean_inc.exit

13:                                               ; preds = %10
  %.val.i = load i32, ptr %0, align 4, !tbaa !4
  %14 = icmp sgt i32 %.val.i, 0
  br i1 %14, label %15, label %17, !prof !11

15:                                               ; preds = %13
  %16 = add nuw i32 %.val.i, 1
  store i32 %16, ptr %0, align 4, !tbaa !4
  br label %lean_inc.exit

17:                                               ; preds = %13
  %.not.i29 = icmp eq i32 %.val.i, 0
  br i1 %.not.i29, label %lean_inc.exit, label %18

18:                                               ; preds = %17
  tail call void @lean_inc_ref_cold(ptr noundef nonnull %0) #5
  br label %lean_inc.exit

lean_inc.exit:                                    ; preds = %18, %17, %15, %10
  %19 = tail call ptr @l_Lean_Meta_Grind_isNatNum(ptr noundef %0) #5
  %20 = ptrtoint ptr %19 to i64
  %21 = and i64 %20, 1
  %.not30 = icmp eq i64 %21, 0
  br i1 %.not30, label %22, label %lean_dec.exit24

22:                                               ; preds = %lean_inc.exit
  %23 = load i32, ptr %19, align 4, !tbaa !4
  %24 = icmp sgt i32 %23, 1
  br i1 %24, label %25, label %27, !prof !11

25:                                               ; preds = %22
  %26 = add nsw i32 %23, -1
  store i32 %26, ptr %19, align 4, !tbaa !4
  br label %lean_dec.exit24

27:                                               ; preds = %22
  %.not.i = icmp eq i32 %23, 0
  br i1 %.not.i, label %lean_dec.exit24, label %28

28:                                               ; preds = %27
  tail call void @lean_dec_ref_cold(ptr noundef nonnull %19) #5
  br label %lean_dec.exit24

lean_dec.exit24:                                  ; preds = %28, %27, %25, %lean_inc.exit
  %29 = and i64 %20, 510
  %30 = icmp eq i64 %29, 0
  br i1 %30, label %31, label %40

31:                                               ; preds = %lean_dec.exit24
  %32 = tail call ptr @l_Lean_Meta_Grind_Arith_Cutsat_foreignTerm_x3f(ptr noundef %0, ptr noundef %1, ptr noundef %2, ptr noundef %3, ptr noundef %4, ptr noundef %5, ptr noundef %6, ptr noundef %7, ptr noundef %8, ptr noundef %9)
  br i1 %.not, label %33, label %lean_dec.exit23

33:                                               ; preds = %31
  %34 = load i32, ptr %0, align 4, !tbaa !4
  %35 = icmp sgt i32 %34, 1
  br i1 %35, label %36, label %38, !prof !11

36:                                               ; preds = %33
  %37 = add nsw i32 %34, -1
  store i32 %37, ptr %0, align 4, !tbaa !4
  br label %lean_dec.exit23

38:                                               ; preds = %33
  %.not.i25 = icmp eq i32 %34, 0
  br i1 %.not.i25, label %lean_dec.exit23, label %39

39:                                               ; preds = %38
  tail call void @lean_dec_ref_cold(ptr noundef nonnull %0) #5
  br label %lean_dec.exit23

40:                                               ; preds = %lean_dec.exit24
  br i1 %.not, label %41, label %lean_dec.exit

41:                                               ; preds = %40
  %42 = load i32, ptr %0, align 4, !tbaa !4
  %43 = icmp sgt i32 %42, 1
  br i1 %43, label %44, label %46, !prof !11

44:                                               ; preds = %41
  %45 = add nsw i32 %42, -1
  store i32 %45, ptr %0, align 4, !tbaa !4
  br label %lean_dec.exit

46:                                               ; preds = %41
  %.not.i27 = icmp eq i32 %42, 0
  br i1 %.not.i27, label %lean_dec.exit, label %47

47:                                               ; preds = %46
  tail call void @lean_dec_ref_cold(ptr noundef nonnull %0) #5
  br label %lean_dec.exit

lean_dec.exit:                                    ; preds = %47, %46, %44, %40
  %48 = load ptr, ptr @l_Lean_Meta_Grind_Arith_Cutsat_foreignTermOrLit_x3f___closed__1, align 8, !tbaa !9
  tail call void @lean_inc_heartbeat() #5
  %49 = tail call noalias ptr @mi_malloc_small(i64 noundef 24) #5
  %50 = icmp eq ptr %49, null
  br i1 %50, label %51, label %lean_alloc_ctor.exit

51:                                               ; preds = %lean_dec.exit
  tail call void @lean_internal_panic_out_of_memory() #6
  unreachable

lean_alloc_ctor.exit:                             ; preds = %lean_dec.exit
  %52 = getelementptr inbounds nuw i8, ptr %49, i64 4
  store i32 1, ptr %49, align 4, !tbaa !4
  store i32 131096, ptr %52, align 4
  %53 = getelementptr inbounds nuw i8, ptr %49, i64 8
  store ptr %48, ptr %53, align 8, !tbaa !9
  %54 = getelementptr inbounds nuw i8, ptr %49, i64 16
  store ptr %9, ptr %54, align 8, !tbaa !9
  br label %lean_dec.exit23

lean_dec.exit23:                                  ; preds = %31, %36, %38, %39, %lean_alloc_ctor.exit
  %.0 = phi ptr [ %49, %lean_alloc_ctor.exit ], [ %32, %39 ], [ %32, %38 ], [ %32, %36 ], [ %32, %31 ]
  ret ptr %.0
}